; Function Attrs: nounwind uwtable
define hidden noundef ptr @lj_cdata_newv(ptr noundef %0, i32 noundef %1, i32 noundef %2, i32 noundef %3) local_unnamed_addr #0 {
  %5 = icmp ugt i32 %3, 3
  %6 = shl nuw i32 1, %3
  %7 = add nuw i32 %6, 16
  %8 = select i1 %5, i32 %7, i32 24
  %9 = add i32 %8, %2
  %10 = zext i32 %9 to i64
  %11 = tail call ptr @lj_mem_realloc(ptr noundef %0, ptr noundef null, i64 noundef 0, i64 noundef %10) #4
  %12 = ptrtoint ptr %11 to i64
  %13 = add i32 %6, -1
  %14 = zext nneg i32 %13 to i64
  %15 = add nuw nsw i64 %14, 24
  %16 = add i64 %15, %12
  %17 = xor i64 %14, -1
  %18 = and i64 %16, %17
  %19 = add i64 %18, -16
  %20 = inttoptr i64 %19 to ptr
  %21 = sub i64 %19, %12
  %22 = trunc i64 %21 to i16
  %23 = getelementptr inbounds i8, ptr %20, i64 -8
  store i16 %22, ptr %23, align 4, !tbaa !24
  %24 = trunc i32 %8 to i16
  %25 = getelementptr inbounds i8, ptr %20, i64 -6
  store i16 %24, ptr %25, align 2, !tbaa !26
  %26 = getelementptr inbounds i8, ptr %20, i64 -4
  store i32 %2, ptr %26, align 4, !tbaa !27
  %27 = getelementptr inbounds nuw i8, ptr %0, i64 16
  %28 = load i64, ptr %27, align 8, !tbaa !28
  %29 = inttoptr i64 %28 to ptr
  %30 = getelementptr inbounds nuw i8, ptr %29, i64 40
  %31 = load i64, ptr %30, align 8, !tbaa !32
  store i64 %31, ptr %20, align 8, !tbaa !43
  store i64 %19, ptr %30, align 8, !tbaa !32
  %32 = getelementptr inbounds nuw i8, ptr %29, i64 32
  %33 = load i8, ptr %32, align 8, !tbaa !44
  %34 = and i8 %33, 3
  %35 = getelementptr inbounds nuw i8, ptr %20, i64 8
  %36 = or disjoint i8 %34, -128
  store i8 %36, ptr %35, align 8, !tbaa !45
  %37 = getelementptr inbounds nuw i8, ptr %20, i64 9
  store i8 10, ptr %37, align 1, !tbaa !17
  %38 = trunc i32 %1 to i16
  %39 = getelementptr inbounds nuw i8, ptr %20, i64 10
  store i16 %38, ptr %39, align 2, !tbaa !22
  ret ptr %20
}